	.file	"arch_offset.c"
	.section	".text","axv"
.Ltext0:
	.cfi_sections	.debug_frame
	.section	.text.oil_foo,"axv",@progbits
	.align 1
	.p2align 2,,3
	.globl oil_foo
	.type	oil_foo, @function
oil_foo:
.LFB15:
	.file 1 "d:/ArcticStudio-21.0.0-win32.win32.x86_64/workspace/core-21.0.0/core/system/Os/osal/ppc/mpc5xxx/kernel/arch_offset.c"
	.loc 1 41 0
	.cfi_startproc
	e_stwu 1,-16(1)
.LCFI0:
	.cfi_def_cfa_offset 16
	se_stw 31,12(1)
	.cfi_offset 31, -4
	se_mr 31,1
.LCFI1:
	.cfi_def_cfa_register 31
	.loc 1 46 0
 # 46 "d:/ArcticStudio-21.0.0-win32.win32.x86_64/workspace/core-21.0.0/core/system/Os/osal/ppc/mpc5xxx/kernel/arch_offset.c" 1
	#define EXC_FRM_SIZE 48
 # 0 "" 2
	.loc 1 47 0
 # 47 "d:/ArcticStudio-21.0.0-win32.win32.x86_64/workspace/core-21.0.0/core/system/Os/osal/ppc/mpc5xxx/kernel/arch_offset.c" 1
	#define EXC_FRM_SP 0
 # 0 "" 2
	.loc 1 48 0
 # 48 "d:/ArcticStudio-21.0.0-win32.win32.x86_64/workspace/core-21.0.0/core/system/Os/osal/ppc/mpc5xxx/kernel/arch_offset.c" 1
	#define EXC_FRM_SRR0 12
 # 0 "" 2
	.loc 1 49 0
 # 49 "d:/ArcticStudio-21.0.0-win32.win32.x86_64/workspace/core-21.0.0/core/system/Os/osal/ppc/mpc5xxx/kernel/arch_offset.c" 1
	#define EXC_FRM_SRR1 16
 # 0 "" 2
	.loc 1 50 0
 # 50 "d:/ArcticStudio-21.0.0-win32.win32.x86_64/workspace/core-21.0.0/core/system/Os/osal/ppc/mpc5xxx/kernel/arch_offset.c" 1
	#define EXC_FRM_LR 20
 # 0 "" 2
	.loc 1 51 0
 # 51 "d:/ArcticStudio-21.0.0-win32.win32.x86_64/workspace/core-21.0.0/core/system/Os/osal/ppc/mpc5xxx/kernel/arch_offset.c" 1
	#define EXC_FRM_CTR 24
 # 0 "" 2
	.loc 1 52 0
 # 52 "d:/ArcticStudio-21.0.0-win32.win32.x86_64/workspace/core-21.0.0/core/system/Os/osal/ppc/mpc5xxx/kernel/arch_offset.c" 1
	#define EXC_FRM_XER 28
 # 0 "" 2
	.loc 1 53 0
 # 53 "d:/ArcticStudio-21.0.0-win32.win32.x86_64/workspace/core-21.0.0/core/system/Os/osal/ppc/mpc5xxx/kernel/arch_offset.c" 1
	#define EXC_FRM_CR 32
 # 0 "" 2
	.loc 1 54 0
 # 54 "d:/ArcticStudio-21.0.0-win32.win32.x86_64/workspace/core-21.0.0/core/system/Os/osal/ppc/mpc5xxx/kernel/arch_offset.c" 1
	#define EXC_FRM_R3 40
 # 0 "" 2
	.loc 1 55 0
 # 55 "d:/ArcticStudio-21.0.0-win32.win32.x86_64/workspace/core-21.0.0/core/system/Os/osal/ppc/mpc5xxx/kernel/arch_offset.c" 1
	#define EXC_FRM_VECTOR 36
 # 0 "" 2
	.loc 1 56 0
 # 56 "d:/ArcticStudio-21.0.0-win32.win32.x86_64/workspace/core-21.0.0/core/system/Os/osal/ppc/mpc5xxx/kernel/arch_offset.c" 1
	#define EXC_FRM_USPRG0 44
 # 0 "" 2
	.loc 1 59 0
 # 59 "d:/ArcticStudio-21.0.0-win32.win32.x86_64/workspace/core-21.0.0/core/system/Os/osal/ppc/mpc5xxx/kernel/arch_offset.c" 1
	#define VOLATILE_FRM_SIZE 80
 # 0 "" 2
	.loc 1 60 0
 # 60 "d:/ArcticStudio-21.0.0-win32.win32.x86_64/workspace/core-21.0.0/core/system/Os/osal/ppc/mpc5xxx/kernel/arch_offset.c" 1
	#define VOLATILE_FRM_R0 0
 # 0 "" 2
	.loc 1 61 0
 # 61 "d:/ArcticStudio-21.0.0-win32.win32.x86_64/workspace/core-21.0.0/core/system/Os/osal/ppc/mpc5xxx/kernel/arch_offset.c" 1
	#define VOLATILE_FRM_R3 4
 # 0 "" 2
	.loc 1 62 0
 # 62 "d:/ArcticStudio-21.0.0-win32.win32.x86_64/workspace/core-21.0.0/core/system/Os/osal/ppc/mpc5xxx/kernel/arch_offset.c" 1
	#define VOLATILE_FRM_R4 8
 # 0 "" 2
	.loc 1 63 0
 # 63 "d:/ArcticStudio-21.0.0-win32.win32.x86_64/workspace/core-21.0.0/core/system/Os/osal/ppc/mpc5xxx/kernel/arch_offset.c" 1
	#define VOLATILE_FRM_R5 12
 # 0 "" 2
	.loc 1 64 0
 # 64 "d:/ArcticStudio-21.0.0-win32.win32.x86_64/workspace/core-21.0.0/core/system/Os/osal/ppc/mpc5xxx/kernel/arch_offset.c" 1
	#define VOLATILE_FRM_R6 16
 # 0 "" 2
	.loc 1 65 0
 # 65 "d:/ArcticStudio-21.0.0-win32.win32.x86_64/workspace/core-21.0.0/core/system/Os/osal/ppc/mpc5xxx/kernel/arch_offset.c" 1
	#define VOLATILE_FRM_R7 20
 # 0 "" 2
	.loc 1 66 0
 # 66 "d:/ArcticStudio-21.0.0-win32.win32.x86_64/workspace/core-21.0.0/core/system/Os/osal/ppc/mpc5xxx/kernel/arch_offset.c" 1
	#define VOLATILE_FRM_R8 24
 # 0 "" 2
	.loc 1 67 0
 # 67 "d:/ArcticStudio-21.0.0-win32.win32.x86_64/workspace/core-21.0.0/core/system/Os/osal/ppc/mpc5xxx/kernel/arch_offset.c" 1
	#define VOLATILE_FRM_R9 28
 # 0 "" 2
	.loc 1 68 0
 # 68 "d:/ArcticStudio-21.0.0-win32.win32.x86_64/workspace/core-21.0.0/core/system/Os/osal/ppc/mpc5xxx/kernel/arch_offset.c" 1
	#define VOLATILE_FRM_R10 32
 # 0 "" 2
	.loc 1 69 0
 # 69 "d:/ArcticStudio-21.0.0-win32.win32.x86_64/workspace/core-21.0.0/core/system/Os/osal/ppc/mpc5xxx/kernel/arch_offset.c" 1
	#define VOLATILE_FRM_R11 36
 # 0 "" 2
	.loc 1 70 0
 # 70 "d:/ArcticStudio-21.0.0-win32.win32.x86_64/workspace/core-21.0.0/core/system/Os/osal/ppc/mpc5xxx/kernel/arch_offset.c" 1
	#define VOLATILE_FRM_R12 40
 # 0 "" 2
	.loc 1 71 0
 # 71 "d:/ArcticStudio-21.0.0-win32.win32.x86_64/workspace/core-21.0.0/core/system/Os/osal/ppc/mpc5xxx/kernel/arch_offset.c" 1
	#define VOLATILE_FRM_LR 44
 # 0 "" 2
	.loc 1 72 0
 # 72 "d:/ArcticStudio-21.0.0-win32.win32.x86_64/workspace/core-21.0.0/core/system/Os/osal/ppc/mpc5xxx/kernel/arch_offset.c" 1
	#define VOLATILE_FRM_CTR 48
 # 0 "" 2
	.loc 1 73 0
 # 73 "d:/ArcticStudio-21.0.0-win32.win32.x86_64/workspace/core-21.0.0/core/system/Os/osal/ppc/mpc5xxx/kernel/arch_offset.c" 1
	#define VOLATILE_FRM_XER 52
 # 0 "" 2
	.loc 1 74 0
 # 74 "d:/ArcticStudio-21.0.0-win32.win32.x86_64/workspace/core-21.0.0/core/system/Os/osal/ppc/mpc5xxx/kernel/arch_offset.c" 1
	#define VOLATILE_FRM_CR 56
 # 0 "" 2
	.loc 1 77 0
 # 77 "d:/ArcticStudio-21.0.0-win32.win32.x86_64/workspace/core-21.0.0/core/system/Os/osal/ppc/mpc5xxx/kernel/arch_offset.c" 1
	#define MPC5XXX_INFO_SIZE 20
 # 0 "" 2
	.loc 1 78 0
 # 78 "d:/ArcticStudio-21.0.0-win32.win32.x86_64/workspace/core-21.0.0/core/system/Os/osal/ppc/mpc5xxx/kernel/arch_offset.c" 1
	#define MPC5XXX_INFO_C_SRR0 0
 # 0 "" 2
	.loc 1 79 0
 # 79 "d:/ArcticStudio-21.0.0-win32.win32.x86_64/workspace/core-21.0.0/core/system/Os/osal/ppc/mpc5xxx/kernel/arch_offset.c" 1
	#define MPC5XXX_INFO_C_SRR1 4
 # 0 "" 2
	.loc 1 80 0
 # 80 "d:/ArcticStudio-21.0.0-win32.win32.x86_64/workspace/core-21.0.0/core/system/Os/osal/ppc/mpc5xxx/kernel/arch_offset.c" 1
	#define MPC5XXX_INFO_MCSR 8
 # 0 "" 2
	.loc 1 81 0
 # 81 "d:/ArcticStudio-21.0.0-win32.win32.x86_64/workspace/core-21.0.0/core/system/Os/osal/ppc/mpc5xxx/kernel/arch_offset.c" 1
	#define MPC5XXX_INFO_ESR 12
 # 0 "" 2
	.loc 1 82 0
 # 82 "d:/ArcticStudio-21.0.0-win32.win32.x86_64/workspace/core-21.0.0/core/system/Os/osal/ppc/mpc5xxx/kernel/arch_offset.c" 1
	#define MPC5XXX_INFO_DEAR 16
 # 0 "" 2
	.loc 1 84 0
 # 84 "d:/ArcticStudio-21.0.0-win32.win32.x86_64/workspace/core-21.0.0/core/system/Os/osal/ppc/mpc5xxx/kernel/arch_offset.c" 1
	#define FUNC_FRM_SIZE 96
 # 0 "" 2
	.loc 1 85 0
 # 85 "d:/ArcticStudio-21.0.0-win32.win32.x86_64/workspace/core-21.0.0/core/system/Os/osal/ppc/mpc5xxx/kernel/arch_offset.c" 1
	#define FUNC_FRM_CR 16
 # 0 "" 2
	.loc 1 86 0
 # 86 "d:/ArcticStudio-21.0.0-win32.win32.x86_64/workspace/core-21.0.0/core/system/Os/osal/ppc/mpc5xxx/kernel/arch_offset.c" 1
	#define FUNC_FRM_LR 20
 # 0 "" 2
	.loc 1 87 0
 # 87 "d:/ArcticStudio-21.0.0-win32.win32.x86_64/workspace/core-21.0.0/core/system/Os/osal/ppc/mpc5xxx/kernel/arch_offset.c" 1
	#define FUNC_FRM_PATTERN 12
 # 0 "" 2
	.loc 1 88 0
 # 88 "d:/ArcticStudio-21.0.0-win32.win32.x86_64/workspace/core-21.0.0/core/system/Os/osal/ppc/mpc5xxx/kernel/arch_offset.c" 1
	#define FUNC_FRM_R14 24
 # 0 "" 2
	.loc 1 89 0
 # 89 "d:/ArcticStudio-21.0.0-win32.win32.x86_64/workspace/core-21.0.0/core/system/Os/osal/ppc/mpc5xxx/kernel/arch_offset.c" 1
	#define FUNC_FRM_R15 28
 # 0 "" 2
	.loc 1 90 0
 # 90 "d:/ArcticStudio-21.0.0-win32.win32.x86_64/workspace/core-21.0.0/core/system/Os/osal/ppc/mpc5xxx/kernel/arch_offset.c" 1
	#define FUNC_FRM_R16 32
 # 0 "" 2
	.loc 1 91 0
 # 91 "d:/ArcticStudio-21.0.0-win32.win32.x86_64/workspace/core-21.0.0/core/system/Os/osal/ppc/mpc5xxx/kernel/arch_offset.c" 1
	#define FUNC_FRM_R17 36
 # 0 "" 2
	.loc 1 92 0
 # 92 "d:/ArcticStudio-21.0.0-win32.win32.x86_64/workspace/core-21.0.0/core/system/Os/osal/ppc/mpc5xxx/kernel/arch_offset.c" 1
	#define FUNC_FRM_R18 40
 # 0 "" 2
	.loc 1 93 0
 # 93 "d:/ArcticStudio-21.0.0-win32.win32.x86_64/workspace/core-21.0.0/core/system/Os/osal/ppc/mpc5xxx/kernel/arch_offset.c" 1
	#define FUNC_FRM_R19 44
 # 0 "" 2
	.loc 1 94 0
 # 94 "d:/ArcticStudio-21.0.0-win32.win32.x86_64/workspace/core-21.0.0/core/system/Os/osal/ppc/mpc5xxx/kernel/arch_offset.c" 1
	#define FUNC_FRM_R20 48
 # 0 "" 2
	.loc 1 95 0
 # 95 "d:/ArcticStudio-21.0.0-win32.win32.x86_64/workspace/core-21.0.0/core/system/Os/osal/ppc/mpc5xxx/kernel/arch_offset.c" 1
	#define FUNC_FRM_R21 52
 # 0 "" 2
	.loc 1 96 0
 # 96 "d:/ArcticStudio-21.0.0-win32.win32.x86_64/workspace/core-21.0.0/core/system/Os/osal/ppc/mpc5xxx/kernel/arch_offset.c" 1
	#define FUNC_FRM_R22 56
 # 0 "" 2
	.loc 1 97 0
 # 97 "d:/ArcticStudio-21.0.0-win32.win32.x86_64/workspace/core-21.0.0/core/system/Os/osal/ppc/mpc5xxx/kernel/arch_offset.c" 1
	#define FUNC_FRM_R23 60
 # 0 "" 2
	.loc 1 98 0
 # 98 "d:/ArcticStudio-21.0.0-win32.win32.x86_64/workspace/core-21.0.0/core/system/Os/osal/ppc/mpc5xxx/kernel/arch_offset.c" 1
	#define FUNC_FRM_R24 64
 # 0 "" 2
	.loc 1 99 0
 # 99 "d:/ArcticStudio-21.0.0-win32.win32.x86_64/workspace/core-21.0.0/core/system/Os/osal/ppc/mpc5xxx/kernel/arch_offset.c" 1
	#define FUNC_FRM_R25 68
 # 0 "" 2
	.loc 1 100 0
 # 100 "d:/ArcticStudio-21.0.0-win32.win32.x86_64/workspace/core-21.0.0/core/system/Os/osal/ppc/mpc5xxx/kernel/arch_offset.c" 1
	#define FUNC_FRM_R26 72
 # 0 "" 2
	.loc 1 101 0
 # 101 "d:/ArcticStudio-21.0.0-win32.win32.x86_64/workspace/core-21.0.0/core/system/Os/osal/ppc/mpc5xxx/kernel/arch_offset.c" 1
	#define FUNC_FRM_R27 76
 # 0 "" 2
	.loc 1 102 0
 # 102 "d:/ArcticStudio-21.0.0-win32.win32.x86_64/workspace/core-21.0.0/core/system/Os/osal/ppc/mpc5xxx/kernel/arch_offset.c" 1
	#define FUNC_FRM_R28 80
 # 0 "" 2
	.loc 1 103 0
 # 103 "d:/ArcticStudio-21.0.0-win32.win32.x86_64/workspace/core-21.0.0/core/system/Os/osal/ppc/mpc5xxx/kernel/arch_offset.c" 1
	#define FUNC_FRM_R29 84
 # 0 "" 2
	.loc 1 104 0
 # 104 "d:/ArcticStudio-21.0.0-win32.win32.x86_64/workspace/core-21.0.0/core/system/Os/osal/ppc/mpc5xxx/kernel/arch_offset.c" 1
	#define FUNC_FRM_R30 88
 # 0 "" 2
	.loc 1 105 0
 # 105 "d:/ArcticStudio-21.0.0-win32.win32.x86_64/workspace/core-21.0.0/core/system/Os/osal/ppc/mpc5xxx/kernel/arch_offset.c" 1
	#define FUNC_FRM_R31 92
 # 0 "" 2
	.loc 1 114 0
 # 114 "d:/ArcticStudio-21.0.0-win32.win32.x86_64/workspace/core-21.0.0/core/system/Os/osal/ppc/mpc5xxx/kernel/arch_offset.c" 1
	#define ISR_FRM_SIZE 128
 # 0 "" 2
	.loc 1 115 0
 # 115 "d:/ArcticStudio-21.0.0-win32.win32.x86_64/workspace/core-21.0.0/core/system/Os/osal/ppc/mpc5xxx/kernel/arch_offset.c" 1
	#define ISR_FRM_R0 16
 # 0 "" 2
	.loc 1 116 0
 # 116 "d:/ArcticStudio-21.0.0-win32.win32.x86_64/workspace/core-21.0.0/core/system/Os/osal/ppc/mpc5xxx/kernel/arch_offset.c" 1
	#define ISR_FRM_R4 20
 # 0 "" 2
	.loc 1 117 0
 # 117 "d:/ArcticStudio-21.0.0-win32.win32.x86_64/workspace/core-21.0.0/core/system/Os/osal/ppc/mpc5xxx/kernel/arch_offset.c" 1
	#define ISR_FRM_R5 24
 # 0 "" 2
	.loc 1 118 0
 # 118 "d:/ArcticStudio-21.0.0-win32.win32.x86_64/workspace/core-21.0.0/core/system/Os/osal/ppc/mpc5xxx/kernel/arch_offset.c" 1
	#define ISR_FRM_R6 28
 # 0 "" 2
	.loc 1 119 0
 # 119 "d:/ArcticStudio-21.0.0-win32.win32.x86_64/workspace/core-21.0.0/core/system/Os/osal/ppc/mpc5xxx/kernel/arch_offset.c" 1
	#define ISR_FRM_R7 32
 # 0 "" 2
	.loc 1 120 0
 # 120 "d:/ArcticStudio-21.0.0-win32.win32.x86_64/workspace/core-21.0.0/core/system/Os/osal/ppc/mpc5xxx/kernel/arch_offset.c" 1
	#define ISR_FRM_R8 36
 # 0 "" 2
	.loc 1 121 0
 # 121 "d:/ArcticStudio-21.0.0-win32.win32.x86_64/workspace/core-21.0.0/core/system/Os/osal/ppc/mpc5xxx/kernel/arch_offset.c" 1
	#define ISR_FRM_R9 40
 # 0 "" 2
	.loc 1 122 0
 # 122 "d:/ArcticStudio-21.0.0-win32.win32.x86_64/workspace/core-21.0.0/core/system/Os/osal/ppc/mpc5xxx/kernel/arch_offset.c" 1
	#define ISR_FRM_R10 44
 # 0 "" 2
	.loc 1 123 0
 # 123 "d:/ArcticStudio-21.0.0-win32.win32.x86_64/workspace/core-21.0.0/core/system/Os/osal/ppc/mpc5xxx/kernel/arch_offset.c" 1
	#define ISR_FRM_R11 48
 # 0 "" 2
	.loc 1 124 0
 # 124 "d:/ArcticStudio-21.0.0-win32.win32.x86_64/workspace/core-21.0.0/core/system/Os/osal/ppc/mpc5xxx/kernel/arch_offset.c" 1
	#define ISR_FRM_R12 52
 # 0 "" 2
	.loc 1 125 0
 # 125 "d:/ArcticStudio-21.0.0-win32.win32.x86_64/workspace/core-21.0.0/core/system/Os/osal/ppc/mpc5xxx/kernel/arch_offset.c" 1
	#define ISR_FRM_R14 56
 # 0 "" 2
	.loc 1 126 0
 # 126 "d:/ArcticStudio-21.0.0-win32.win32.x86_64/workspace/core-21.0.0/core/system/Os/osal/ppc/mpc5xxx/kernel/arch_offset.c" 1
	#define ISR_FRM_R15 60
 # 0 "" 2
	.loc 1 127 0
 # 127 "d:/ArcticStudio-21.0.0-win32.win32.x86_64/workspace/core-21.0.0/core/system/Os/osal/ppc/mpc5xxx/kernel/arch_offset.c" 1
	#define ISR_FRM_R16 64
 # 0 "" 2
	.loc 1 128 0
 # 128 "d:/ArcticStudio-21.0.0-win32.win32.x86_64/workspace/core-21.0.0/core/system/Os/osal/ppc/mpc5xxx/kernel/arch_offset.c" 1
	#define ISR_FRM_R17 68
 # 0 "" 2
	.loc 1 129 0
 # 129 "d:/ArcticStudio-21.0.0-win32.win32.x86_64/workspace/core-21.0.0/core/system/Os/osal/ppc/mpc5xxx/kernel/arch_offset.c" 1
	#define ISR_FRM_R18 72
 # 0 "" 2
	.loc 1 130 0
 # 130 "d:/ArcticStudio-21.0.0-win32.win32.x86_64/workspace/core-21.0.0/core/system/Os/osal/ppc/mpc5xxx/kernel/arch_offset.c" 1
	#define ISR_FRM_R19 76
 # 0 "" 2
	.loc 1 131 0
 # 131 "d:/ArcticStudio-21.0.0-win32.win32.x86_64/workspace/core-21.0.0/core/system/Os/osal/ppc/mpc5xxx/kernel/arch_offset.c" 1
	#define ISR_FRM_R20 80
 # 0 "" 2
	.loc 1 132 0
 # 132 "d:/ArcticStudio-21.0.0-win32.win32.x86_64/workspace/core-21.0.0/core/system/Os/osal/ppc/mpc5xxx/kernel/arch_offset.c" 1
	#define ISR_FRM_R21 84
 # 0 "" 2
	.loc 1 133 0
 # 133 "d:/ArcticStudio-21.0.0-win32.win32.x86_64/workspace/core-21.0.0/core/system/Os/osal/ppc/mpc5xxx/kernel/arch_offset.c" 1
	#define ISR_FRM_R22 88
 # 0 "" 2
	.loc 1 134 0
 # 134 "d:/ArcticStudio-21.0.0-win32.win32.x86_64/workspace/core-21.0.0/core/system/Os/osal/ppc/mpc5xxx/kernel/arch_offset.c" 1
	#define ISR_FRM_R23 92
 # 0 "" 2
	.loc 1 135 0
 # 135 "d:/ArcticStudio-21.0.0-win32.win32.x86_64/workspace/core-21.0.0/core/system/Os/osal/ppc/mpc5xxx/kernel/arch_offset.c" 1
	#define ISR_FRM_R24 96
 # 0 "" 2
	.loc 1 136 0
 # 136 "d:/ArcticStudio-21.0.0-win32.win32.x86_64/workspace/core-21.0.0/core/system/Os/osal/ppc/mpc5xxx/kernel/arch_offset.c" 1
	#define ISR_FRM_R25 100
 # 0 "" 2
	.loc 1 137 0
 # 137 "d:/ArcticStudio-21.0.0-win32.win32.x86_64/workspace/core-21.0.0/core/system/Os/osal/ppc/mpc5xxx/kernel/arch_offset.c" 1
	#define ISR_FRM_R26 104
 # 0 "" 2
	.loc 1 138 0
 # 138 "d:/ArcticStudio-21.0.0-win32.win32.x86_64/workspace/core-21.0.0/core/system/Os/osal/ppc/mpc5xxx/kernel/arch_offset.c" 1
	#define ISR_FRM_R27 108
 # 0 "" 2
	.loc 1 139 0
 # 139 "d:/ArcticStudio-21.0.0-win32.win32.x86_64/workspace/core-21.0.0/core/system/Os/osal/ppc/mpc5xxx/kernel/arch_offset.c" 1
	#define ISR_FRM_R28 112
 # 0 "" 2
	.loc 1 140 0
 # 140 "d:/ArcticStudio-21.0.0-win32.win32.x86_64/workspace/core-21.0.0/core/system/Os/osal/ppc/mpc5xxx/kernel/arch_offset.c" 1
	#define ISR_FRM_R29 116
 # 0 "" 2
	.loc 1 141 0
 # 141 "d:/ArcticStudio-21.0.0-win32.win32.x86_64/workspace/core-21.0.0/core/system/Os/osal/ppc/mpc5xxx/kernel/arch_offset.c" 1
	#define ISR_FRM_R30 120
 # 0 "" 2
	.loc 1 142 0
 # 142 "d:/ArcticStudio-21.0.0-win32.win32.x86_64/workspace/core-21.0.0/core/system/Os/osal/ppc/mpc5xxx/kernel/arch_offset.c" 1
	#define ISR_FRM_R31 124
 # 0 "" 2
	.loc 1 143 0
 # 143 "d:/ArcticStudio-21.0.0-win32.win32.x86_64/workspace/core-21.0.0/core/system/Os/osal/ppc/mpc5xxx/kernel/arch_offset.c" 1
	#define ISR_FRM_PATTERN 12
 # 0 "" 2
	.loc 1 144 0
 # 144 "d:/ArcticStudio-21.0.0-win32.win32.x86_64/workspace/core-21.0.0/core/system/Os/osal/ppc/mpc5xxx/kernel/arch_offset.c" 1
	#define INTC_HI 64516
 # 0 "" 2
	.loc 1 145 0
 # 145 "d:/ArcticStudio-21.0.0-win32.win32.x86_64/workspace/core-21.0.0/core/system/Os/osal/ppc/mpc5xxx/kernel/arch_offset.c" 1
	#define INTC_LO 0
 # 0 "" 2
	.loc 1 161 0
 # 161 "d:/ArcticStudio-21.0.0-win32.win32.x86_64/workspace/core-21.0.0/core/system/Os/osal/ppc/mpc5xxx/kernel/arch_offset.c" 1
	#define INTC_IACR_OFFS 32
 # 0 "" 2
	.loc 1 162 0
 # 162 "d:/ArcticStudio-21.0.0-win32.win32.x86_64/workspace/core-21.0.0/core/system/Os/osal/ppc/mpc5xxx/kernel/arch_offset.c" 1
	#define INTC_EOIR_OFFS 48
 # 0 "" 2
	.loc 1 164 0
 # 164 "d:/ArcticStudio-21.0.0-win32.win32.x86_64/workspace/core-21.0.0/core/system/Os/osal/ppc/mpc5xxx/kernel/arch_offset.c" 1
	#define INTC_SSCIR0_OFFS 64
 # 0 "" 2
	.loc 1 165 0
 # 165 "d:/ArcticStudio-21.0.0-win32.win32.x86_64/workspace/core-21.0.0/core/system/Os/osal/ppc/mpc5xxx/kernel/arch_offset.c" 1
	#define NUM_SOFT_INT 24
 # 0 "" 2
	.loc 1 181 0
 # 181 "d:/ArcticStudio-21.0.0-win32.win32.x86_64/workspace/core-21.0.0/core/system/Os/osal/ppc/mpc5xxx/kernel/arch_offset.c" 1
	#define E_OS_BAD_CONTEXT_ASM 35
 # 0 "" 2
	.loc 1 184 0
	e_addi 11,31,16
	e_lwz 31,-4(11)
.LCFI2:
	.cfi_def_cfa 11, 0
	se_mfar 1,11
.LCFI3:
	.cfi_restore 31
	.cfi_def_cfa_register 1
	se_blr
	.cfi_endproc
.LFE15:
	.size	oil_foo, .-oil_foo
	.section	".text","axv"
.Letext0:
	.file 2 "d:\\arcticstudio-21.0.0-win32.win32.x86_64\\msys\\opt\\mingw-powerpc-eabivle-4.9.4\\powerpc-eabivle\\include\\machine\\_default_types.h"
	.file 3 "d:\\arcticstudio-21.0.0-win32.win32.x86_64\\msys\\opt\\mingw-powerpc-eabivle-4.9.4\\powerpc-eabivle\\include\\stdint.h"
	.file 4 "d:/ArcticStudio-21.0.0-win32.win32.x86_64/workspace/core-21.0.0/core/include/Arc_Types.h"
	.file 5 "d:/ArcticStudio-21.0.0-win32.win32.x86_64/workspace/core-21.0.0/core/include/Platform_Types.h"
	.file 6 "d:/ArcticStudio-21.0.0-win32.win32.x86_64/workspace/core-21.0.0/core/mcal/arch/mpc5xxx/mpc5748g.h"
	.file 7 "d:/ArcticStudio-21.0.0-win32.win32.x86_64/workspace/core-21.0.0/core/system/Os/rtos/inc/Os.h"